target datalayout = "e-m:e-p270:32:32-p271:32:32-p272:64:64-i64:64-i128:128-f80:128-n8:16:32:64-S128"
target triple = "x86_64-pc-linux-gnu"

%"class.logging::LogMessageVoidify" = type { i8 }
%"class.logging::LogMessage" = type <{ i32, [4 x i8], %"class.std::__cxx11::basic_ostringstream", i64, ptr, i32, [4 x i8] }>
%"class.std::__cxx11::basic_ostringstream" = type { %"class.std::basic_ostream.base", %"class.std::__cxx11::basic_stringbuf", %"class.std::basic_ios" }
%"class.std::basic_ostream.base" = type { ptr }
%"class.std::__cxx11::basic_stringbuf" = type { %"class.std::basic_streambuf", i32, %"class.std::__cxx11::basic_string" }
%"class.std::basic_streambuf" = type { ptr, ptr, ptr, ptr, ptr, ptr, ptr, %"class.std::locale" }
%"class.std::locale" = type { ptr }
%"class.std::__cxx11::basic_string" = type { %"struct.std::__cxx11::basic_string<char>::_Alloc_hider", i64, %union.anon }
%"struct.std::__cxx11::basic_string<char>::_Alloc_hider" = type { ptr }
%union.anon = type { i64, [8 x i8] }
%"class.std::basic_ios" = type { %"class.std::ios_base", ptr, i8, i8, ptr, ptr, ptr, ptr }
%"class.std::ios_base" = type { ptr, i64, i64, i32, i32, i32, ptr, %"struct.std::ios_base::_Words", [8 x %"struct.std::ios_base::_Words"], i32, ptr, %"class.std::locale" }
%"struct.std::ios_base::_Words" = type { ptr, i64 }

@.str = private unnamed_addr constant [123 x i8] c"generated/home/dtcxzyw/WorkSpace/Projects/compilers/llvm-opt-benchmark/bench/libquic/libquic/src/net/spdy/spdy_protocol.cc\00", align 1
@.str.11 = private unnamed_addr constant [25 x i8] c"Unhandled GOAWAY status \00", align 1

; Function Attrs: inlinehint mustprogress nounwind uwtable
define linkonce_odr noundef i32 @_ZStorSt12_Ios_IostateS_(i32 noundef %0, i32 noundef %1) #9 comdat {
  %3 = alloca i32, align 4
  %4 = alloca i32, align 4
  store i32 %0, ptr %3, align 4, !tbaa !204
  store i32 %1, ptr %4, align 4, !tbaa !204
  %5 = load i32, ptr %3, align 4, !tbaa !204
  %6 = load i32, ptr %4, align 4, !tbaa !204
  %7 = or i32 %5, %6
  ret i32 %7
}

; Function Attrs: mustprogress nounwind uwtable
define available_externally noundef i32 @_ZNKSt9basic_iosIcSt11char_traitsIcEE7rdstateEv(ptr noundef nonnull align 8 dereferenceable(264) %0) #3 align 2 {
  %2 = alloca ptr, align 8
  store ptr %0, ptr %2, align 8, !tbaa !202
  %3 = load ptr, ptr %2, align 8
  %4 = getelementptr inbounds nuw %"class.std::ios_base", ptr %3, i32 0, i32 5
  %5 = load i32, ptr %4, align 8, !tbaa !206
  ret i32 %5
}

; Function Attrs: mustprogress nounwind uwtable
define linkonce_odr noundef i64 @_ZNSt11char_traitsIcE6lengthEPKc(ptr noundef %0) #3 comdat align 2 {
  %2 = alloca ptr, align 8
  store ptr %0, ptr %2, align 8, !tbaa !11
  %3 = load ptr, ptr %2, align 8, !tbaa !11
  %4 = call i64 @strlen(ptr noundef %3) #15
  ret i64 %4
}

; Function Attrs: mustprogress uwtable
define available_externally void @_ZNSt9basic_iosIcSt11char_traitsIcEE8setstateESt12_Ios_Iostate(ptr noundef nonnull align 8 dereferenceable(264) %0, i32 noundef %1) #0 align 2 {
  %3 = alloca ptr, align 8
  %4 = alloca i32, align 4
  store ptr %0, ptr %3, align 8, !tbaa !202
  store i32 %1, ptr %4, align 4, !tbaa !204
  %5 = load ptr, ptr %3, align 8
  %6 = call noundef i32 @_ZNKSt9basic_iosIcSt11char_traitsIcEE7rdstateEv(ptr noundef nonnull align 8 dereferenceable(264) %5)
  %7 = load i32, ptr %4, align 4, !tbaa !204
  %8 = call noundef i32 @_ZStorSt12_Ios_IostateS_(i32 noundef %6, i32 noundef %7)
  call void @_ZNSt9basic_iosIcSt11char_traitsIcEE5clearESt12_Ios_Iostate(ptr noundef nonnull align 8 dereferenceable(264) %5, i32 noundef %8)
  ret void
}

; Function Attrs: mustprogress nounwind uwtable
define linkonce_odr void @_ZN7logging17LogMessageVoidifyanERSo(ptr noundef nonnull align 1 dereferenceable(1) %0, ptr noundef nonnull align 8 dereferenceable(8) %1) #3 comdat align 2 {
  %3 = alloca ptr, align 8
  %4 = alloca ptr, align 8
  store ptr %0, ptr %3, align 8, !tbaa !6
  store ptr %1, ptr %4, align 8, !tbaa !9
  ret void
}

; Function Attrs: inlinehint mustprogress uwtable
define available_externally noundef nonnull align 8 dereferenceable(8) ptr @_ZStlsISt11char_traitsIcEERSt13basic_ostreamIcT_ES5_PKc(ptr noundef nonnull align 8 dereferenceable(8) %0, ptr noundef %1) #4 {
  %3 = alloca ptr, align 8
  %4 = alloca ptr, align 8
  store ptr %0, ptr %3, align 8, !tbaa !9
  store ptr %1, ptr %4, align 8, !tbaa !11
  %5 = load ptr, ptr %4, align 8, !tbaa !11
  %6 = icmp ne ptr %5, null
  br i1 %6, label %13, label %7

7:                                                ; preds = %2
  %8 = load ptr, ptr %3, align 8, !tbaa !9
  %9 = load ptr, ptr %8, align 8, !tbaa !13
  %10 = getelementptr i8, ptr %9, i64 -24
  %11 = load i64, ptr %10, align 8
  %12 = getelementptr inbounds i8, ptr %8, i64 %11
  call void @_ZNSt9basic_iosIcSt11char_traitsIcEE8setstateESt12_Ios_Iostate(ptr noundef nonnull align 8 dereferenceable(264) %12, i32 noundef 1)
  br label %19

13:                                               ; preds = %2
  %14 = load ptr, ptr %3, align 8, !tbaa !9
  %15 = load ptr, ptr %4, align 8, !tbaa !11
  %16 = load ptr, ptr %4, align 8, !tbaa !11
  %17 = call noundef i64 @_ZNSt11char_traitsIcE6lengthEPKc(ptr noundef %16)
  %18 = call noundef nonnull align 8 dereferenceable(8) ptr @_ZSt16__ostream_insertIcSt11char_traitsIcEERSt13basic_ostreamIT_T0_ES6_PKS3_l(ptr noundef nonnull align 8 dereferenceable(8) %14, ptr noundef %15, i64 noundef %17)
  br label %19

19:                                               ; preds = %13, %7
  %20 = load ptr, ptr %3, align 8, !tbaa !9
  ret ptr %20
}

; Function Attrs: mustprogress nounwind uwtable
define linkonce_odr noundef nonnull align 8 dereferenceable(8) ptr @_ZN7logging10LogMessage6streamEv(ptr noundef nonnull align 8 dereferenceable(404) %0) #3 comdat align 2 {
  %2 = alloca ptr, align 8
  store ptr %0, ptr %2, align 8, !tbaa !15
  %3 = load ptr, ptr %2, align 8
  %4 = getelementptr inbounds nuw %"class.logging::LogMessage", ptr %3, i32 0, i32 2
  ret ptr %4
}

; Function Attrs: mustprogress nounwind uwtable
define linkonce_odr void @_ZN7logging17LogMessageVoidifyC2Ev(ptr noundef nonnull align 1 dereferenceable(1) %0) unnamed_addr #3 comdat align 2 {
  %2 = alloca ptr, align 8
  store ptr %0, ptr %2, align 8, !tbaa !6
  ret void
}

; Function Attrs: mustprogress uwtable
define noundef i32 @_ZN3net13SpdyConstants17ParseGoAwayStatusENS_16SpdyMajorVersionEi(i32 noundef %0, i32 noundef %1) #0 align 2 personality ptr @__gxx_personality_v0 {
  %3 = alloca i32, align 4
  %4 = alloca i32, align 4
  %5 = alloca i32, align 4
  %6 = alloca %"class.logging::LogMessageVoidify", align 1
  %7 = alloca %"class.logging::LogMessage", align 8
  %8 = alloca i1, align 1
  %9 = alloca i1, align 1
  %10 = alloca ptr, align 8
  %11 = alloca i32, align 4
  store i32 %0, ptr %4, align 4, !tbaa !21
  store i32 %1, ptr %5, align 4, !tbaa !17
  %12 = load i32, ptr %4, align 4, !tbaa !21
  switch i32 %12, label %36 [
    i32 1, label %13
    i32 2, label %19
  ]

13:                                               ; preds = %2
  %14 = load i32, ptr %5, align 4, !tbaa !17
  switch i32 %14, label %18 [
    i32 0, label %15
    i32 1, label %16
    i32 2, label %17
  ]

15:                                               ; preds = %13
  store i32 0, ptr %3, align 4
  br label %65

16:                                               ; preds = %13
  store i32 1, ptr %3, align 4
  br label %65

17:                                               ; preds = %13
  store i32 2, ptr %3, align 4
  br label %65

18:                                               ; preds = %13
  br label %36

19:                                               ; preds = %2
  %20 = load i32, ptr %5, align 4, !tbaa !17
  switch i32 %20, label %35 [
    i32 0, label %21
    i32 1, label %22
    i32 2, label %23
    i32 3, label %24
    i32 4, label %25
    i32 5, label %26
    i32 6, label %27
    i32 7, label %28
    i32 8, label %29
    i32 9, label %30
    i32 10, label %31
    i32 11, label %32
    i32 12, label %33
    i32 13, label %34
  ]

21:                                               ; preds = %19
  store i32 0, ptr %3, align 4
  br label %65

22:                                               ; preds = %19
  store i32 1, ptr %3, align 4
  br label %65

23:                                               ; preds = %19
  store i32 2, ptr %3, align 4
  br label %65

24:                                               ; preds = %19
  store i32 3, ptr %3, align 4
  br label %65

25:                                               ; preds = %19
  store i32 4, ptr %3, align 4
  br label %65

26:                                               ; preds = %19
  store i32 5, ptr %3, align 4
  br label %65

27:                                               ; preds = %19
  store i32 6, ptr %3, align 4
  br label %65

28:                                               ; preds = %19
  store i32 7, ptr %3, align 4
  br label %65

29:                                               ; preds = %19
  store i32 8, ptr %3, align 4
  br label %65

30:                                               ; preds = %19
  store i32 9, ptr %3, align 4
  br label %65

31:                                               ; preds = %19
  store i32 10, ptr %3, align 4
  br label %65

32:                                               ; preds = %19
  store i32 11, ptr %3, align 4
  br label %65

33:                                               ; preds = %19
  store i32 12, ptr %3, align 4
  br label %65

34:                                               ; preds = %19
  store i32 13, ptr %3, align 4
  br label %65

35:                                               ; preds = %19
  br label %36

36:                                               ; preds = %2, %35, %18
  %37 = call noundef zeroext i1 @_ZN7logging22ShouldCreateLogMessageEi(i32 noundef 2)
  call void @llvm.lifetime.start.p0(i64 1, ptr %6) #15
  store i1 false, ptr %8, align 1
  store i1 false, ptr %9, align 1
  br i1 %37, label %39, label %38

38:                                               ; preds = %36
  br label %48

39:                                               ; preds = %36
  call void @_ZN7logging17LogMessageVoidifyC2Ev(ptr noundef nonnull align 1 dereferenceable(1) %6)
  call void @llvm.lifetime.start.p0(i64 408, ptr %7) #15
  store i1 true, ptr %8, align 1
  call void @_ZN7logging10LogMessageC1EPKcii(ptr noundef nonnull align 8 dereferenceable(404) %7, ptr noundef @.str, i32 noundef 625, i32 noundef 2)
  store i1 true, ptr %9, align 1
  %40 = invoke noundef nonnull align 8 dereferenceable(8) ptr @_ZN7logging10LogMessage6streamEv(ptr noundef nonnull align 8 dereferenceable(404) %7)
          to label %41 unwind label %55

41:                                               ; preds = %39
  %42 = invoke noundef nonnull align 8 dereferenceable(8) ptr @_ZStlsISt11char_traitsIcEERSt13basic_ostreamIcT_ES5_PKc(ptr noundef nonnull align 8 dereferenceable(8) %40, ptr noundef @.str.11)
          to label %43 unwind label %55

43:                                               ; preds = %41
  %44 = load i32, ptr %5, align 4, !tbaa !17
  %45 = invoke noundef nonnull align 8 dereferenceable(8) ptr @_ZNSolsEi(ptr noundef nonnull align 8 dereferenceable(8) %42, i32 noundef %44)
          to label %46 unwind label %55

46:                                               ; preds = %43
  invoke void @_ZN7logging17LogMessageVoidifyanERSo(ptr noundef nonnull align 1 dereferenceable(1) %6, ptr noundef nonnull align 8 dereferenceable(8) %45)
          to label %47 unwind label %55

47:                                               ; preds = %46
  br label %48

48:                                               ; preds = %47, %38
  %49 = load i1, ptr %9, align 1
  br i1 %49, label %50, label %51

50:                                               ; preds = %48
  call void @_ZN7logging10LogMessageD1Ev(ptr noundef nonnull align 8 dereferenceable(404) %7) #15
  br label %51

51:                                               ; preds = %50, %48
  %52 = load i1, ptr %8, align 1
  br i1 %52, label %53, label %54

53:                                               ; preds = %51
  call void @llvm.lifetime.end.p0(i64 408, ptr %7) #15
  br label %54

54:                                               ; preds = %53, %51
  call void @llvm.lifetime.end.p0(i64 1, ptr %6) #15
  store i32 1, ptr %3, align 4
  br label %65

55:                                               ; preds = %46, %43, %41, %39
  %56 = landingpad { ptr, i32 }
          cleanup
  %57 = extractvalue { ptr, i32 } %56, 0
  store ptr %57, ptr %10, align 8
  %58 = extractvalue { ptr, i32 } %56, 1
  store i32 %58, ptr %11, align 4
  %59 = load i1, ptr %9, align 1
  br i1 %59, label %60, label %61

60:                                               ; preds = %55
  call void @_ZN7logging10LogMessageD1Ev(ptr noundef nonnull align 8 dereferenceable(404) %7) #15
  br label %61

61:                                               ; preds = %60, %55
  %62 = load i1, ptr %8, align 1
  br i1 %62, label %63, label %64

63:                                               ; preds = %61
  call void @llvm.lifetime.end.p0(i64 408, ptr %7) #15
  br label %64

64:                                               ; preds = %63, %61
  call void @llvm.lifetime.end.p0(i64 1, ptr %6) #15
  br label %67

65:                                               ; preds = %54, %34, %33, %32, %31, %30, %29, %28, %27, %26, %25, %24, %23, %22, %21, %17, %16, %15
  %66 = load i32, ptr %3, align 4
  ret i32 %66

67:                                               ; preds = %64
  %68 = load ptr, ptr %10, align 8
  %69 = load i32, ptr %11, align 4
  %70 = insertvalue { ptr, i32 } poison, ptr %68, 0
  %71 = insertvalue { ptr, i32 } %70, i32 %69, 1
  resume { ptr, i32 } %71
}