; Function Attrs: mustprogress uwtable
define noundef range(i32 0, 14) i32 @_ZN3net13SpdyConstants17ParseGoAwayStatusENS_16SpdyMajorVersionEi(i32 noundef %0, i32 noundef %1) local_unnamed_addr #0 align 2 personality ptr @__gxx_personality_v0 {
  %3 = alloca %"class.logging::LogMessage", align 8
  switch i32 %0, label %8 [
    i32 1, label %4
    i32 2, label %6
  ]

4:                                                ; preds = %2
  %5 = icmp ult i32 %1, 3
  br i1 %5, label %.critedge12, label %8

6:                                                ; preds = %2
  %7 = icmp ult i32 %1, 14
  br i1 %7, label %.critedge12, label %8

8:                                                ; preds = %6, %4, %2
  %9 = tail call noundef zeroext i1 @_ZN7logging22ShouldCreateLogMessageEi(i32 noundef 2)
  br i1 %9, label %10, label %.critedge12

10:                                               ; preds = %8
  call void @llvm.lifetime.start.p0(i64 408, ptr nonnull %3) #22
  call void @_ZN7logging10LogMessageC1EPKcii(ptr noundef nonnull align 8 dereferenceable(404) %3, ptr noundef nonnull @.str, i32 noundef 625, i32 noundef 2)
  %11 = getelementptr inbounds nuw i8, ptr %3, i64 8
  %12 = invoke noundef nonnull align 8 dereferenceable(8) ptr @_ZSt16__ostream_insertIcSt11char_traitsIcEERSt13basic_ostreamIT_T0_ES6_PKS3_l(ptr noundef nonnull align 8 dereferenceable(8) %11, ptr noundef nonnull @.str.11, i64 noundef 24)
          to label %_ZStlsISt11char_traitsIcEERSt13basic_ostreamIcT_ES5_PKc.exit unwind label %14

_ZStlsISt11char_traitsIcEERSt13basic_ostreamIcT_ES5_PKc.exit: ; preds = %10
  %13 = invoke noundef nonnull align 8 dereferenceable(8) ptr @_ZNSolsEi(ptr noundef nonnull align 8 dereferenceable(8) %11, i32 noundef %1)
          to label %.critedge unwind label %14

.critedge:                                        ; preds = %_ZStlsISt11char_traitsIcEERSt13basic_ostreamIcT_ES5_PKc.exit
  call void @_ZN7logging10LogMessageD1Ev(ptr noundef nonnull align 8 dereferenceable(404) %3) #22
  call void @llvm.lifetime.end.p0(i64 408, ptr nonnull %3) #22
  br label %.critedge12

14:                                               ; preds = %10, %_ZStlsISt11char_traitsIcEERSt13basic_ostreamIcT_ES5_PKc.exit
  %15 = landingpad { ptr, i32 }
          cleanup
  call void @_ZN7logging10LogMessageD1Ev(ptr noundef nonnull align 8 dereferenceable(404) %3) #22
  call void @llvm.lifetime.end.p0(i64 408, ptr nonnull %3) #22
  resume { ptr, i32 } %15

.critedge12:                                      ; preds = %6, %4, %.critedge, %8
  %.0 = phi i32 [ 1, %8 ], [ 1, %.critedge ], [ %1, %4 ], [ %1, %6 ]
  ret i32 %.0
}